target datalayout = "e-m:e-p270:32:32-p271:32:32-p272:64:64-i64:64-i128:128-f80:128-n8:16:32:64-S128"
target triple = "x86_64-pc-linux-gnu"

@.str.1 = private unnamed_addr constant [16 x i8] c"objectaddress.c\00", align 1
@.str.5 = private unnamed_addr constant [45 x i8] c"name or argument lists may not contain nulls\00", align 1
@__func__.textarray_to_strvaluelist = private unnamed_addr constant [26 x i8] c"textarray_to_strvaluelist\00", align 1

; Function Attrs: inlinehint nounwind uwtable
define internal ptr @DatumGetPointer(i64 noundef %0) #4 {
  %2 = alloca i64, align 8
  store i64 %0, ptr %2, align 8
  %3 = load i64, ptr %2, align 8
  %4 = inttoptr i64 %3 to ptr
  ret ptr %4
}

; Function Attrs: nounwind uwtable
define internal ptr @textarray_to_strvaluelist(ptr noundef %0) #0 {
  %2 = alloca ptr, align 8
  %3 = alloca ptr, align 8
  %4 = alloca ptr, align 8
  %5 = alloca i32, align 4
  %6 = alloca ptr, align 8
  %7 = alloca i32, align 4
  store ptr %0, ptr %2, align 8
  call void @llvm.lifetime.start.p0(i64 8, ptr %3) #10
  call void @llvm.lifetime.start.p0(i64 8, ptr %4) #10
  call void @llvm.lifetime.start.p0(i64 4, ptr %5) #10
  call void @llvm.lifetime.start.p0(i64 8, ptr %6) #10
  store ptr null, ptr %6, align 8
  call void @llvm.lifetime.start.p0(i64 4, ptr %7) #10
  %8 = load ptr, ptr %2, align 8
  call void @deconstruct_array_builtin(ptr noundef %8, i32 noundef 25, ptr noundef %3, ptr noundef %4, ptr noundef %5)
  store i32 0, ptr %7, align 4
  br label %9

9:                                                ; preds = %43, %1
  %10 = load i32, ptr %7, align 4
  %11 = load i32, ptr %5, align 4
  %12 = icmp slt i32 %10, %11
  br i1 %12, label %13, label %46

13:                                               ; preds = %9
  %14 = load ptr, ptr %4, align 8
  %15 = load i32, ptr %7, align 4
  %16 = sext i32 %15 to i64
  %17 = getelementptr inbounds i8, ptr %14, i64 %16
  %18 = load i8, ptr %17, align 1, !range !4, !noundef !5
  %19 = trunc i8 %18 to i1
  br i1 %19, label %20, label %32

20:                                               ; preds = %13
  br label %21

21:                                               ; preds = %20
  br i1 true, label %22, label %24

22:                                               ; preds = %21
  %23 = call zeroext i1 @errstart_cold(i32 noundef 21, ptr noundef null) #11
  br i1 %23, label %26, label %29

24:                                               ; preds = %21
  %25 = call zeroext i1 @errstart(i32 noundef 21, ptr noundef null)
  br i1 %25, label %26, label %29

26:                                               ; preds = %24, %22
  %27 = call i32 @errcode(i32 noundef 50856066)
  %28 = call i32 (ptr, ...) @errmsg(ptr noundef @.str.5)
  call void @errfinish(ptr noundef @.str.1, i32 noundef 2094, ptr noundef @__func__.textarray_to_strvaluelist)
  br label %29

29:                                               ; preds = %26, %24, %22
  unreachable

30:                                               ; No predecessors!
  br label %31

31:                                               ; preds = %30
  br label %32

32:                                               ; preds = %31, %13
  %33 = load ptr, ptr %6, align 8
  %34 = load ptr, ptr %3, align 8
  %35 = load i32, ptr %7, align 4
  %36 = sext i32 %35 to i64
  %37 = getelementptr inbounds i64, ptr %34, i64 %36
  %38 = load i64, ptr %37, align 8
  %39 = call ptr @DatumGetPointer(i64 noundef %38)
  %40 = call ptr @text_to_cstring(ptr noundef %39)
  %41 = call ptr @makeString(ptr noundef %40)
  %42 = call ptr @lappend(ptr noundef %33, ptr noundef %41)
  store ptr %42, ptr %6, align 8
  br label %43

43:                                               ; preds = %32
  %44 = load i32, ptr %7, align 4
  %45 = add i32 %44, 1
  store i32 %45, ptr %7, align 4
  br label %9, !llvm.loop !10

46:                                               ; preds = %9
  %47 = load ptr, ptr %6, align 8
  call void @llvm.lifetime.end.p0(i64 4, ptr %7) #10
  call void @llvm.lifetime.end.p0(i64 8, ptr %6) #10
  call void @llvm.lifetime.end.p0(i64 4, ptr %5) #10
  call void @llvm.lifetime.end.p0(i64 8, ptr %4) #10
  call void @llvm.lifetime.end.p0(i64 8, ptr %3) #10
  ret ptr %47
}