; Function Attrs: nounwind uwtable
define internal fastcc ptr @textarray_to_strvaluelist(ptr noundef %0) unnamed_addr #0 {
  %2 = alloca ptr, align 8
  %3 = alloca ptr, align 8
  %4 = alloca i32, align 4
  call void @llvm.lifetime.start.p0(i64 8, ptr nonnull %2) #11
  call void @llvm.lifetime.start.p0(i64 8, ptr nonnull %3) #11
  call void @llvm.lifetime.start.p0(i64 4, ptr nonnull %4) #11
  call void @deconstruct_array_builtin(ptr noundef %0, i32 noundef 25, ptr noundef nonnull %2, ptr noundef nonnull %3, ptr noundef nonnull %4) #11
  %5 = load i32, ptr %4, align 4
  %6 = icmp sgt i32 %5, 0
  br i1 %6, label %.lr.ph, label %._crit_edge

.lr.ph:                                           ; preds = %1, %15
  %indvars.iv = phi i64 [ %indvars.iv.next, %15 ], [ 0, %1 ]
  %.068 = phi ptr [ %22, %15 ], [ null, %1 ]
  %7 = load ptr, ptr %3, align 8
  %8 = getelementptr inbounds nuw i8, ptr %7, i64 %indvars.iv
  %9 = load i8, ptr %8, align 1, !range !6, !noundef !7
  %10 = trunc nuw i8 %9 to i1
  br i1 %10, label %11, label %15

11:                                               ; preds = %.lr.ph
  %12 = call zeroext i1 @errstart_cold(i32 noundef 21, ptr noundef null) #12
  call void @llvm.assume(i1 %12)
  %13 = call i32 @errcode(i32 noundef 50856066) #11
  %14 = call i32 (ptr, ...) @errmsg(ptr noundef nonnull @.str.5) #11
  call void @errfinish(ptr noundef nonnull @.str.1, i32 noundef 2094, ptr noundef nonnull @__func__.textarray_to_strvaluelist) #11
  unreachable

15:                                               ; preds = %.lr.ph
  %16 = load ptr, ptr %2, align 8
  %17 = getelementptr inbounds nuw i64, ptr %16, i64 %indvars.iv
  %18 = load i64, ptr %17, align 8
  %19 = inttoptr i64 %18 to ptr
  %20 = call ptr @text_to_cstring(ptr noundef %19) #11
  %21 = call ptr @makeString(ptr noundef %20) #11
  %22 = call ptr @lappend(ptr noundef %.068, ptr noundef %21) #11
  %indvars.iv.next = add nuw nsw i64 %indvars.iv, 1
  %23 = load i32, ptr %4, align 4
  %24 = sext i32 %23 to i64
  %25 = icmp slt i64 %indvars.iv.next, %24
  br i1 %25, label %.lr.ph, label %._crit_edge, !llvm.loop !9

._crit_edge:                                      ; preds = %15, %1
  %.06.lcssa = phi ptr [ null, %1 ], [ %22, %15 ]
  call void @llvm.lifetime.end.p0(i64 4, ptr nonnull %4) #11
  call void @llvm.lifetime.end.p0(i64 8, ptr nonnull %3) #11
  call void @llvm.lifetime.end.p0(i64 8, ptr nonnull %2) #11
  ret ptr %.06.lcssa
}